; Function Attrs: nounwind uwtable
define internal void @_set_rect_attr(ptr noundef %0, ptr noundef %1, ptr nocapture noundef readonly %2) #0 {
  tail call void @_set_attr(ptr noundef %0, ptr noundef %1, ptr noundef %2)
  %4 = load i8, ptr %2, align 8, !tbaa !163
  switch i8 %4, label %29 [
    i8 11, label %5
    i8 12, label %9
    i8 13, label %13
    i8 14, label %17
    i8 15, label %21
    i8 16, label %25
  ]

5:                                                ; preds = %3
  %6 = getelementptr inbounds nuw i8, ptr %2, i64 8
  %7 = load float, ptr %6, align 8, !tbaa !165
  %8 = getelementptr inbounds nuw i8, ptr %0, i64 576
  store float %7, ptr %8, align 8, !tbaa !172
  br label %29

9:                                                ; preds = %3
  %10 = getelementptr inbounds nuw i8, ptr %2, i64 8
  %11 = load float, ptr %10, align 8, !tbaa !165
  %12 = getelementptr inbounds nuw i8, ptr %0, i64 580
  store float %11, ptr %12, align 4, !tbaa !173
  br label %29

13:                                               ; preds = %3
  %14 = getelementptr inbounds nuw i8, ptr %2, i64 8
  %15 = load float, ptr %14, align 8, !tbaa !165
  %16 = getelementptr inbounds nuw i8, ptr %0, i64 584
  store float %15, ptr %16, align 8, !tbaa !174
  br label %29

17:                                               ; preds = %3
  %18 = getelementptr inbounds nuw i8, ptr %2, i64 8
  %19 = load float, ptr %18, align 8, !tbaa !165
  %20 = getelementptr inbounds nuw i8, ptr %0, i64 588
  store float %19, ptr %20, align 4, !tbaa !175
  br label %29

21:                                               ; preds = %3
  %22 = getelementptr inbounds nuw i8, ptr %2, i64 8
  %23 = load float, ptr %22, align 8, !tbaa !165
  %24 = getelementptr inbounds nuw i8, ptr %0, i64 592
  store float %23, ptr %24, align 8, !tbaa !170
  br label %29

25:                                               ; preds = %3
  %26 = getelementptr inbounds nuw i8, ptr %2, i64 8
  %27 = load float, ptr %26, align 8, !tbaa !165
  %28 = getelementptr inbounds nuw i8, ptr %0, i64 596
  store float %27, ptr %28, align 4, !tbaa !171
  br label %29

29:                                               ; preds = %25, %21, %17, %13, %9, %5, %3
  ret void
}